; Function Attrs: nounwind uwtable
define zeroext i8 @l_Lean_JsonRpc_beqRequestID____x40_Lean_Data_JsonRpc___hyg_36_(ptr noundef %0, ptr noundef %1) local_unnamed_addr #0 {
  %3 = ptrtoint ptr %0 to i64
  %4 = and i64 %3, 1
  %.not.i = icmp eq i64 %4, 0
  br i1 %.not.i, label %8, label %5

5:                                                ; preds = %2
  %6 = lshr i64 %3, 1
  %7 = trunc i64 %6 to i32
  br label %lean_obj_tag.exit

8:                                                ; preds = %2
  %9 = getelementptr i8, ptr %0, i64 4
  %.val.i = load i32, ptr %9, align 4
  %10 = lshr i32 %.val.i, 24
  br label %lean_obj_tag.exit

lean_obj_tag.exit:                                ; preds = %5, %8
  %.0.i = phi i32 [ %7, %5 ], [ %10, %8 ]
  %11 = ptrtoint ptr %1 to i64
  %12 = and i64 %11, 1
  %.not.i26 = icmp eq i64 %12, 0
  switch i32 %.0.i, label %48 [
    i32 0, label %13
    i32 1, label %34
  ]

13:                                               ; preds = %lean_obj_tag.exit
  br i1 %.not.i26, label %17, label %14

14:                                               ; preds = %13
  %15 = lshr i64 %11, 1
  %16 = trunc i64 %15 to i32
  br label %lean_obj_tag.exit21

17:                                               ; preds = %13
  %18 = getelementptr i8, ptr %1, i64 4
  %.val.i20 = load i32, ptr %18, align 4
  %19 = lshr i32 %.val.i20, 24
  br label %lean_obj_tag.exit21

lean_obj_tag.exit21:                              ; preds = %14, %17
  %.0.i19 = phi i32 [ %16, %14 ], [ %19, %17 ]
  %20 = icmp eq i32 %.0.i19, 0
  br i1 %20, label %21, label %lean_string_dec_eq.exit

21:                                               ; preds = %lean_obj_tag.exit21
  %22 = getelementptr inbounds nuw i8, ptr %0, i64 8
  %23 = load ptr, ptr %22, align 8, !tbaa !4
  %24 = getelementptr inbounds nuw i8, ptr %1, i64 8
  %25 = load ptr, ptr %24, align 8, !tbaa !4
  %26 = icmp eq ptr %23, %25
  br i1 %26, label %lean_string_dec_eq.exit, label %27

27:                                               ; preds = %21
  %28 = getelementptr i8, ptr %23, i64 8
  %.val.i.i = load i64, ptr %28, align 8, !tbaa !8
  %29 = getelementptr i8, ptr %25, i64 8
  %.val7.i.i = load i64, ptr %29, align 8, !tbaa !8
  %30 = icmp eq i64 %.val.i.i, %.val7.i.i
  br i1 %30, label %31, label %lean_string_dec_eq.exit

31:                                               ; preds = %27
  %32 = tail call zeroext i1 @lean_string_eq_cold(ptr noundef nonnull %23, ptr noundef nonnull %25) #7
  %33 = zext i1 %32 to i8
  br label %lean_string_dec_eq.exit

34:                                               ; preds = %lean_obj_tag.exit
  br i1 %.not.i26, label %38, label %35

35:                                               ; preds = %34
  %36 = lshr i64 %11, 1
  %37 = trunc i64 %36 to i32
  br label %lean_obj_tag.exit25

38:                                               ; preds = %34
  %39 = getelementptr i8, ptr %1, i64 4
  %.val.i24 = load i32, ptr %39, align 4
  %40 = lshr i32 %.val.i24, 24
  br label %lean_obj_tag.exit25

lean_obj_tag.exit25:                              ; preds = %35, %38
  %.0.i23 = phi i32 [ %37, %35 ], [ %40, %38 ]
  %41 = icmp eq i32 %.0.i23, 1
  br i1 %41, label %42, label %lean_string_dec_eq.exit

42:                                               ; preds = %lean_obj_tag.exit25
  %43 = getelementptr inbounds nuw i8, ptr %0, i64 8
  %44 = load ptr, ptr %43, align 8, !tbaa !4
  %45 = getelementptr inbounds nuw i8, ptr %1, i64 8
  %46 = load ptr, ptr %45, align 8, !tbaa !4
  %47 = tail call zeroext i8 @l___private_Lean_Data_Json_Basic_0__Lean_decEqJsonNumber____x40_Lean_Data_Json_Basic___hyg_23_(ptr noundef %44, ptr noundef %46) #7
  br label %lean_string_dec_eq.exit

48:                                               ; preds = %lean_obj_tag.exit
  br i1 %.not.i26, label %52, label %49

49:                                               ; preds = %48
  %50 = lshr i64 %11, 1
  %51 = trunc i64 %50 to i32
  br label %lean_obj_tag.exit29

52:                                               ; preds = %48
  %53 = getelementptr i8, ptr %1, i64 4
  %.val.i28 = load i32, ptr %53, align 4
  %54 = lshr i32 %.val.i28, 24
  br label %lean_obj_tag.exit29

lean_obj_tag.exit29:                              ; preds = %49, %52
  %.0.i27 = phi i32 [ %51, %49 ], [ %54, %52 ]
  %55 = icmp eq i32 %.0.i27, 2
  %. = zext i1 %55 to i8
  br label %lean_string_dec_eq.exit

lean_string_dec_eq.exit:                          ; preds = %31, %27, %21, %lean_obj_tag.exit29, %lean_obj_tag.exit25, %lean_obj_tag.exit21, %42
  %.0 = phi i8 [ %47, %42 ], [ 0, %lean_obj_tag.exit21 ], [ 0, %lean_obj_tag.exit25 ], [ %., %lean_obj_tag.exit29 ], [ 1, %21 ], [ 0, %27 ], [ %33, %31 ]
  ret i8 %.0
}